; Function Attrs: mustprogress null_pointer_is_valid sspstrong uwtable
define void @_ZN22BluetoothDevicesDialog28on_actionCopy_Cell_triggeredEv(ptr noundef readonly align 8 captures(none) dereferenceable_or_null(224) %0) local_unnamed_addr #0 align 2 personality ptr @__gxx_personality_v0 {
  %2 = alloca %class.QVariant, align 8
  %3 = alloca %class.QString, align 8
  %4 = alloca %class.QString, align 8
  %5 = tail call noundef ptr @_ZN15QGuiApplication9clipboardEv()
  call void @llvm.lifetime.start.p0(i64 24, ptr nonnull %3) #21
  call void @llvm.lifetime.start.p0(i64 24, ptr nonnull %4) #21
  %6 = getelementptr inbounds nuw i8, ptr %0, i64 144
  %7 = load ptr, ptr %6, align 8
  %8 = getelementptr inbounds nuw i8, ptr %7, i64 56
  %9 = load ptr, ptr %8, align 8
  %10 = invoke noundef ptr @_ZNK11QTreeWidget11currentItemEv(ptr noundef align 8 dereferenceable_or_null(40) %9)
          to label %11 unwind label %34

11:                                               ; preds = %1
  %12 = load ptr, ptr %6, align 8
  %13 = getelementptr inbounds nuw i8, ptr %12, i64 56
  %14 = load ptr, ptr %13, align 8
  %15 = invoke noundef i32 @_ZNK11QTreeWidget13currentColumnEv(ptr noundef align 8 dereferenceable_or_null(40) %14)
          to label %16 unwind label %34

16:                                               ; preds = %11
  call void @llvm.lifetime.start.p0(i64 32, ptr nonnull %2) #21, !noalias !58
  %17 = load ptr, ptr %10, align 8, !noalias !58
  %18 = getelementptr inbounds nuw i8, ptr %17, i64 24
  %19 = load ptr, ptr %18, align 8, !noalias !58
  invoke void %19(ptr dead_on_unwind nonnull writable sret(%class.QVariant) align 8 %2, ptr noundef align 8 dereferenceable_or_null(92) %10, i32 noundef %15, i32 noundef 0)
          to label %.noexc unwind label %34

.noexc:                                           ; preds = %16
  invoke void @_ZNK8QVariant8toStringEv(ptr dead_on_unwind nonnull writable sret(%class.QString) align 8 %4, ptr noundef nonnull align 8 dereferenceable_or_null(32) %2)
          to label %_ZN7QStringD2Ev.exit unwind label %20

20:                                               ; preds = %.noexc
  %21 = landingpad { ptr, i32 }
          cleanup
  call void @_ZN8QVariantD1Ev(ptr noundef nonnull align 8 dereferenceable_or_null(32) %2) #21
  call void @llvm.lifetime.end.p0(i64 32, ptr nonnull %2) #21, !noalias !58
  br label %.thread

_ZN7QStringD2Ev.exit:                             ; preds = %.noexc
  call void @_ZN8QVariantD1Ev(ptr noundef nonnull align 8 dereferenceable_or_null(32) %2) #21
  call void @llvm.lifetime.end.p0(i64 32, ptr nonnull %2) #21, !noalias !58
  %22 = load ptr, ptr %4, align 8
  store ptr %22, ptr %3, align 8
  store ptr null, ptr %4, align 8
  %23 = getelementptr inbounds nuw i8, ptr %3, i64 8
  %24 = getelementptr inbounds nuw i8, ptr %4, i64 8
  %25 = load ptr, ptr %24, align 8
  store ptr %25, ptr %23, align 8
  store ptr null, ptr %24, align 8
  %26 = getelementptr inbounds nuw i8, ptr %3, i64 16
  %27 = getelementptr inbounds nuw i8, ptr %4, i64 16
  %28 = load i64, ptr %27, align 8
  store i64 %28, ptr %26, align 8
  call void @llvm.lifetime.end.p0(i64 24, ptr nonnull %4) #21
  invoke void @_ZN10QClipboard7setTextERK7QStringNS_4ModeE(ptr noundef align 8 dereferenceable_or_null(16) %5, ptr noundef nonnull align 8 dereferenceable(24) %3, i32 noundef 0)
          to label %29 unwind label %36

29:                                               ; preds = %_ZN7QStringD2Ev.exit
  %30 = load ptr, ptr %3, align 8
  %.not.i.i.i5 = icmp eq ptr %30, null
  br i1 %.not.i.i.i5, label %_ZN7QStringD2Ev.exit8, label %_ZN17QArrayDataPointerIDsE5derefEv.exit.i.i6

_ZN17QArrayDataPointerIDsE5derefEv.exit.i.i6:     ; preds = %29
  %31 = atomicrmw sub ptr %30, i32 1 seq_cst, align 4
  %.not.i.i7 = icmp eq i32 %31, 1
  br i1 %.not.i.i7, label %32, label %_ZN7QStringD2Ev.exit8

32:                                               ; preds = %_ZN17QArrayDataPointerIDsE5derefEv.exit.i.i6
  %33 = load ptr, ptr %3, align 8
  call void @_ZN10QArrayData10deallocateEPS_xx(ptr noundef %33, i64 noundef 2, i64 noundef 8) #21
  br label %_ZN7QStringD2Ev.exit8

_ZN7QStringD2Ev.exit8:                            ; preds = %29, %_ZN17QArrayDataPointerIDsE5derefEv.exit.i.i6, %32
  call void @llvm.lifetime.end.p0(i64 24, ptr nonnull %3) #21
  ret void

34:                                               ; preds = %16, %11, %1
  %35 = landingpad { ptr, i32 }
          cleanup
  br label %.thread

.thread:                                          ; preds = %34, %20
  %eh.lpad-body = phi { ptr, i32 } [ %35, %34 ], [ %21, %20 ]
  call void @llvm.lifetime.end.p0(i64 24, ptr nonnull %4) #21
  br label %_ZN7QStringD2Ev.exit12

36:                                               ; preds = %_ZN7QStringD2Ev.exit
  %37 = landingpad { ptr, i32 }
          cleanup
  %.pre = load ptr, ptr %3, align 8
  %.not.i.i.i9 = icmp eq ptr %.pre, null
  br i1 %.not.i.i.i9, label %_ZN7QStringD2Ev.exit12, label %_ZN17QArrayDataPointerIDsE5derefEv.exit.i.i10

_ZN17QArrayDataPointerIDsE5derefEv.exit.i.i10:    ; preds = %36
  %38 = atomicrmw sub ptr %.pre, i32 1 seq_cst, align 4
  %.not.i.i11 = icmp eq i32 %38, 1
  br i1 %.not.i.i11, label %39, label %_ZN7QStringD2Ev.exit12

39:                                               ; preds = %_ZN17QArrayDataPointerIDsE5derefEv.exit.i.i10
  %40 = load ptr, ptr %3, align 8
  call void @_ZN10QArrayData10deallocateEPS_xx(ptr noundef %40, i64 noundef 2, i64 noundef 8) #21
  br label %_ZN7QStringD2Ev.exit12

_ZN7QStringD2Ev.exit12:                           ; preds = %.thread, %36, %_ZN17QArrayDataPointerIDsE5derefEv.exit.i.i10, %39
  %.pn15 = phi { ptr, i32 } [ %eh.lpad-body, %.thread ], [ %37, %36 ], [ %37, %_ZN17QArrayDataPointerIDsE5derefEv.exit.i.i10 ], [ %37, %39 ]
  call void @llvm.lifetime.end.p0(i64 24, ptr nonnull %3) #21
  resume { ptr, i32 } %.pn15
}